; Function Attrs: null_pointer_is_valid sspstrong uwtable
define internal fastcc void @decode_Tango_Device_3_set_attribute_config_3(ptr noundef %0, ptr noundef %1, ptr noundef %2, ptr noundef %3, ptr noundef %4, ptr noundef readonly captures(none) %5, i1 noundef zeroext %6) unnamed_addr #0 {
  %8 = getelementptr inbounds nuw i8, ptr %5, i64 7
  %9 = load i8, ptr %8, align 1
  switch i8 %9, label %28 [
    i8 0, label %10
    i8 1, label %23
  ]

10:                                               ; preds = %7
  %11 = tail call i32 @get_CDR_ulong(ptr noundef %0, ptr noundef %4, i1 noundef zeroext %6, i32 noundef 12)
  %12 = load i32, ptr @hf_Tango_Device_3_set_attribute_config_3_new_conf_loop, align 4
  %13 = load i32, ptr %4, align 4
  %14 = add i32 %13, -4
  %15 = tail call ptr @proto_tree_add_uint(ptr noundef %2, i32 noundef %12, ptr noundef %0, i32 noundef %14, i32 noundef 4, i32 noundef %11)
  %16 = load i32, ptr %4, align 4
  %17 = load i32, ptr @ett_giop_sequence, align 4
  %18 = tail call ptr @proto_tree_add_subtree(ptr noundef %2, ptr noundef %0, i32 noundef %16, i32 noundef -1, i32 noundef %17, ptr noundef null, ptr noundef nonnull @.str.860)
  %.not = icmp eq i32 %11, 0
  br i1 %.not, label %.loopexit, label %.lr.ph

.lr.ph:                                           ; preds = %10, %.lr.ph
  %.01 = phi i32 [ %22, %.lr.ph ], [ 0, %10 ]
  %19 = load i32, ptr %4, align 4
  %20 = load i32, ptr @ett_giop_struct, align 4
  %21 = tail call ptr @proto_tree_add_subtree(ptr noundef %18, ptr noundef %0, i32 noundef %19, i32 noundef -1, i32 noundef %20, ptr noundef null, ptr noundef nonnull @.str.838)
  tail call fastcc void @decode_Tango_AttributeConfig_3_st(ptr noundef %0, ptr noundef %21, ptr noundef %4, i1 noundef zeroext %6)
  %22 = add nuw i32 %.01, 1
  %exitcond.not = icmp eq i32 %22, %11
  br i1 %exitcond.not, label %.loopexit, label %.lr.ph, !llvm.loop !53

23:                                               ; preds = %7
  %24 = getelementptr inbounds nuw i8, ptr %5, i64 16
  %25 = load i32, ptr %24, align 8
  %switch = icmp ult i32 %25, 2
  br i1 %switch, label %.loopexit, label %26

26:                                               ; preds = %23
  %27 = tail call ptr (ptr, ptr, ptr, ptr, ...) @expert_add_info_format(ptr noundef %1, ptr noundef %3, ptr noundef nonnull @ei_tango_unknown_exception, ptr noundef nonnull @.str.771, i32 noundef %25)
  br label %.loopexit

28:                                               ; preds = %7
  %29 = zext i8 %9 to i32
  %30 = tail call ptr (ptr, ptr, ptr, ptr, ...) @expert_add_info_format(ptr noundef %1, ptr noundef %3, ptr noundef nonnull @ei_tango_unknown_giop_msg, ptr noundef nonnull @.str.772, i32 noundef %29)
  br label %.loopexit

.loopexit:                                        ; preds = %.lr.ph, %10, %23, %26, %28
  ret void
}